; Function Attrs: mustprogress uwtable
define void @_ZN6casadi27ImplicitFixedStepIntegratorC2ERNS_19DeserializingStreamE(ptr noundef nonnull align 8 dereferenceable(1976) %0, ptr noundef nonnull align 8 dereferenceable(41) %1) unnamed_addr #3 align 2 personality ptr @__gxx_personality_v0 {
  %3 = alloca %"class.std::__cxx11::basic_string", align 8
  %4 = alloca %"class.std::allocator.0", align 1
  tail call void @_ZN6casadi19FixedStepIntegratorC2ERNS_19DeserializingStreamE(ptr noundef nonnull align 8 dereferenceable(1976) %0, ptr noundef nonnull align 8 dereferenceable(41) %1)
  store ptr getelementptr inbounds ({ [124 x ptr], [3 x ptr] }, ptr @_ZTVN6casadi27ImplicitFixedStepIntegratorE, i64 0, i32 0, i64 2), ptr %0, align 8
  %5 = getelementptr inbounds i8, ptr %0, i64 1520
  store ptr getelementptr inbounds ({ [124 x ptr], [3 x ptr] }, ptr @_ZTVN6casadi27ImplicitFixedStepIntegratorE, i64 0, i32 1, i64 2), ptr %5, align 8
  call void @_ZNSaIcEC1Ev(ptr noundef nonnull align 1 dereferenceable(1) %4) #29
  %6 = invoke noundef ptr @_ZNSt7__cxx1112basic_stringIcSt11char_traitsIcESaIcEE13_M_local_dataEv(ptr noundef nonnull align 8 dereferenceable(32) %3)
          to label %.noexc unwind label %10

.noexc:                                           ; preds = %2
  invoke void @_ZNSt7__cxx1112basic_stringIcSt11char_traitsIcESaIcEE12_Alloc_hiderC1EPcRKS3_(ptr noundef nonnull align 8 dereferenceable(8) %3, ptr noundef %6, ptr noundef nonnull align 1 dereferenceable(1) %4)
          to label %.noexc6 unwind label %10

.noexc6:                                          ; preds = %.noexc
  invoke void @_ZNSt7__cxx1112basic_stringIcSt11char_traitsIcESaIcEE12_M_constructIPKcEEvT_S8_St20forward_iterator_tag(ptr noundef nonnull align 8 dereferenceable(32) %3, ptr noundef nonnull @.str.233, ptr noundef nonnull getelementptr inbounds ([28 x i8], ptr @.str.233, i64 0, i64 27))
          to label %_ZNSt7__cxx1112basic_stringIcSt11char_traitsIcESaIcEEC2IS3_EEPKcRKS3_.exit unwind label %7

7:                                                ; preds = %.noexc6
  %8 = landingpad { ptr, i32 }
          cleanup
  call void @_ZNSaIcED2Ev(ptr noundef nonnull align 1 dereferenceable(1) %3) #29
  br label %.body

_ZNSt7__cxx1112basic_stringIcSt11char_traitsIcESaIcEEC2IS3_EEPKcRKS3_.exit: ; preds = %.noexc6
  invoke void @_ZN6casadi19DeserializingStream7versionERKNSt7__cxx1112basic_stringIcSt11char_traitsIcESaIcEEEi(ptr noundef nonnull align 8 dereferenceable(41) %1, ptr noundef nonnull align 8 dereferenceable(32) %3, i32 noundef 2)
          to label %9 unwind label %12

9:                                                ; preds = %_ZNSt7__cxx1112basic_stringIcSt11char_traitsIcESaIcEEC2IS3_EEPKcRKS3_.exit
  call void @_ZNSt7__cxx1112basic_stringIcSt11char_traitsIcESaIcEED1Ev(ptr noundef nonnull align 8 dereferenceable(32) %3) #29
  call void @_ZNSaIcED1Ev(ptr noundef nonnull align 1 dereferenceable(1) %4) #29
  ret void

10:                                               ; preds = %.noexc, %2
  %11 = landingpad { ptr, i32 }
          cleanup
  br label %.body

12:                                               ; preds = %_ZNSt7__cxx1112basic_stringIcSt11char_traitsIcESaIcEEC2IS3_EEPKcRKS3_.exit
  %13 = landingpad { ptr, i32 }
          cleanup
  call void @_ZNSt7__cxx1112basic_stringIcSt11char_traitsIcESaIcEED1Ev(ptr noundef nonnull align 8 dereferenceable(32) %3) #29
  br label %.body

.body:                                            ; preds = %10, %7, %12
  %.pn = phi { ptr, i32 } [ %13, %12 ], [ %11, %10 ], [ %8, %7 ]
  call void @_ZNSaIcED1Ev(ptr noundef nonnull align 1 dereferenceable(1) %4) #29
  call void @_ZN6casadi19FixedStepIntegratorD2Ev(ptr noundef nonnull align 8 dereferenceable(1976) %0) #29
  resume { ptr, i32 } %.pn
}